target datalayout = "e-m:e-p270:32:32-p271:32:32-p272:64:64-i64:64-i128:128-f80:128-n8:16:32:64-S128"
target triple = "x86_64-pc-linux-gnu"

%struct.model_map = type { ptr, ptr, ptr, ptr, ptr }

; Function Attrs: nounwind uwtable
define i32 @dt_libraw_lookup_makermodel(ptr noundef %0, ptr noundef %1, ptr noundef %2, i32 noundef %3, ptr noundef %4, i32 noundef %5, ptr noundef %6, i32 noundef %7) #0 {
  %9 = alloca i32, align 4
  %10 = alloca ptr, align 8
  %11 = alloca ptr, align 8
  %12 = alloca ptr, align 8
  %13 = alloca i32, align 4
  %14 = alloca ptr, align 8
  %15 = alloca i32, align 4
  %16 = alloca ptr, align 8
  %17 = alloca i32, align 4
  %18 = alloca i32, align 4
  %19 = alloca i32, align 4
  store ptr %0, ptr %10, align 8, !tbaa !13
  store ptr %1, ptr %11, align 8, !tbaa !13
  store ptr %2, ptr %12, align 8, !tbaa !13
  store i32 %3, ptr %13, align 4, !tbaa !18
  store ptr %4, ptr %14, align 8, !tbaa !13
  store i32 %5, ptr %15, align 4, !tbaa !18
  store ptr %6, ptr %16, align 8, !tbaa !13
  store i32 %7, ptr %17, align 4, !tbaa !18
  call void @llvm.lifetime.start.p0(i64 4, ptr %18) #7
  store i32 0, ptr %18, align 4, !tbaa !18
  br label %20

20:                                               ; preds = %72, %8
  %21 = load i32, ptr %18, align 4, !tbaa !18
  %22 = sext i32 %21 to i64
  %23 = icmp ult i64 %22, 30
  br i1 %23, label %25, label %24

24:                                               ; preds = %20
  store i32 2, ptr %19, align 4
  br label %75

25:                                               ; preds = %20
  %26 = load ptr, ptr %10, align 8, !tbaa !13
  %27 = load i32, ptr %18, align 4, !tbaa !18
  %28 = sext i32 %27 to i64
  %29 = getelementptr inbounds [30 x %struct.model_map], ptr @modelMap, i64 0, i64 %28
  %30 = getelementptr inbounds nuw %struct.model_map, ptr %29, i32 0, i32 0
  %31 = load ptr, ptr %30, align 8, !tbaa !20
  %32 = call i32 @g_strcmp0(ptr noundef %26, ptr noundef %31)
  %33 = icmp ne i32 %32, 0
  br i1 %33, label %71, label %34

34:                                               ; preds = %25
  %35 = load ptr, ptr %11, align 8, !tbaa !13
  %36 = load i32, ptr %18, align 4, !tbaa !18
  %37 = sext i32 %36 to i64
  %38 = getelementptr inbounds [30 x %struct.model_map], ptr @modelMap, i64 0, i64 %37
  %39 = getelementptr inbounds nuw %struct.model_map, ptr %38, i32 0, i32 1
  %40 = load ptr, ptr %39, align 8, !tbaa !22
  %41 = call i32 @g_strcmp0(ptr noundef %35, ptr noundef %40)
  %42 = icmp ne i32 %41, 0
  br i1 %42, label %71, label %43

43:                                               ; preds = %34
  %44 = load ptr, ptr %12, align 8, !tbaa !13
  %45 = load i32, ptr %18, align 4, !tbaa !18
  %46 = sext i32 %45 to i64
  %47 = getelementptr inbounds [30 x %struct.model_map], ptr @modelMap, i64 0, i64 %46
  %48 = getelementptr inbounds nuw %struct.model_map, ptr %47, i32 0, i32 2
  %49 = load ptr, ptr %48, align 8, !tbaa !23
  %50 = load i32, ptr %13, align 4, !tbaa !18
  %51 = sext i32 %50 to i64
  %52 = call i64 @g_strlcpy(ptr noundef %44, ptr noundef %49, i64 noundef %51)
  %53 = load ptr, ptr %14, align 8, !tbaa !13
  %54 = load i32, ptr %18, align 4, !tbaa !18
  %55 = sext i32 %54 to i64
  %56 = getelementptr inbounds [30 x %struct.model_map], ptr @modelMap, i64 0, i64 %55
  %57 = getelementptr inbounds nuw %struct.model_map, ptr %56, i32 0, i32 3
  %58 = load ptr, ptr %57, align 8, !tbaa !24
  %59 = load i32, ptr %15, align 4, !tbaa !18
  %60 = sext i32 %59 to i64
  %61 = call i64 @g_strlcpy(ptr noundef %53, ptr noundef %58, i64 noundef %60)
  %62 = load ptr, ptr %16, align 8, !tbaa !13
  %63 = load i32, ptr %18, align 4, !tbaa !18
  %64 = sext i32 %63 to i64
  %65 = getelementptr inbounds [30 x %struct.model_map], ptr @modelMap, i64 0, i64 %64
  %66 = getelementptr inbounds nuw %struct.model_map, ptr %65, i32 0, i32 4
  %67 = load ptr, ptr %66, align 8, !tbaa !25
  %68 = load i32, ptr %17, align 4, !tbaa !18
  %69 = sext i32 %68 to i64
  %70 = call i64 @g_strlcpy(ptr noundef %62, ptr noundef %67, i64 noundef %69)
  store i32 1, ptr %9, align 4
  store i32 1, ptr %19, align 4
  br label %75

71:                                               ; preds = %34, %25
  br label %72

72:                                               ; preds = %71
  %73 = load i32, ptr %18, align 4, !tbaa !18
  %74 = add nsw i32 %73, 1
  store i32 %74, ptr %18, align 4, !tbaa !18
  br label %20

75:                                               ; preds = %43, %24
  call void @llvm.lifetime.end.p0(i64 4, ptr %18) #7
  %76 = load i32, ptr %19, align 4
  switch i32 %76, label %80 [
    i32 2, label %77
    i32 1, label %78
  ]

77:                                               ; preds = %75
  store i32 0, ptr %9, align 4
  br label %78

78:                                               ; preds = %77, %75
  %79 = load i32, ptr %9, align 4
  ret i32 %79

80:                                               ; preds = %75
  unreachable
}