; Function Attrs: nounwind uwtable
define range(i32 0, 2) i32 @dt_libraw_lookup_makermodel(ptr noundef %0, ptr noundef %1, ptr noundef %2, i32 noundef %3, ptr noundef %4, i32 noundef %5, ptr noundef %6, i32 noundef %7) local_unnamed_addr #0 {
  br label %9

9:                                                ; preds = %8, %27
  %indvars.iv = phi i64 [ 0, %8 ], [ %indvars.iv.next, %27 ]
  %10 = tail call i32 @g_strcmp0(ptr noundef %0, ptr noundef nonnull @.str) #5
  %.not = icmp eq i32 %10, 0
  br i1 %.not, label %11, label %27

11:                                               ; preds = %9
  %12 = getelementptr inbounds nuw [30 x %struct.model_map], ptr @modelMap, i64 0, i64 %indvars.iv
  %13 = getelementptr inbounds nuw i8, ptr %12, i64 8
  %14 = load ptr, ptr %13, align 8, !tbaa !14
  %15 = tail call i32 @g_strcmp0(ptr noundef %1, ptr noundef %14) #5
  %.not19 = icmp eq i32 %15, 0
  br i1 %.not19, label %16, label %27

16:                                               ; preds = %11
  %17 = sext i32 %3 to i64
  %18 = tail call i64 @g_strlcpy(ptr noundef %2, ptr noundef nonnull @.str, i64 noundef %17) #5
  %19 = getelementptr inbounds nuw i8, ptr %12, i64 24
  %20 = load ptr, ptr %19, align 8, !tbaa !17
  %21 = sext i32 %5 to i64
  %22 = tail call i64 @g_strlcpy(ptr noundef %4, ptr noundef %20, i64 noundef %21) #5
  %23 = getelementptr inbounds nuw i8, ptr %12, i64 32
  %24 = load ptr, ptr %23, align 8, !tbaa !18
  %25 = sext i32 %7 to i64
  %26 = tail call i64 @g_strlcpy(ptr noundef %6, ptr noundef %24, i64 noundef %25) #5
  br label %.loopexit

27:                                               ; preds = %9, %11
  %indvars.iv.next = add nuw nsw i64 %indvars.iv, 1
  %exitcond.not = icmp eq i64 %indvars.iv.next, 30
  br i1 %exitcond.not, label %.loopexit, label %9

.loopexit:                                        ; preds = %27, %16
  %spec.select = phi i32 [ 1, %16 ], [ 0, %27 ]
  ret i32 %spec.select
}